; Function Attrs: nounwind uwtable
define internal range(i32 -1, 1) i32 @read_seek(ptr noundef readonly captures(none) %0, i32 noundef %1, i64 noundef %2, i32 %3) #0 {
  %5 = getelementptr inbounds nuw i8, ptr %0, i64 48
  %6 = load ptr, ptr %5, align 8, !tbaa !45
  %7 = sext i32 %1 to i64
  %8 = getelementptr inbounds ptr, ptr %6, i64 %7
  %9 = load ptr, ptr %8, align 8, !tbaa !46
  %10 = getelementptr inbounds nuw i8, ptr %0, i64 32
  %11 = load ptr, ptr %10, align 8, !tbaa !24
  %12 = tail call i64 @llvm.smax.i64(i64 %2, i64 0)
  %13 = getelementptr inbounds nuw i8, ptr %9, i64 16
  %14 = load ptr, ptr %13, align 8, !tbaa !34
  %15 = getelementptr inbounds nuw i8, ptr %14, i64 72
  %16 = load i32, ptr %15, align 8, !tbaa !41
  %17 = sext i32 %16 to i64
  %18 = getelementptr inbounds nuw i8, ptr %14, i64 76
  %19 = load i32, ptr %18, align 4, !tbaa !42
  %20 = sext i32 %19 to i64
  %21 = shl i64 %12, 2
  %22 = mul i64 %21, %17
  %23 = mul i64 %22, %20
  %24 = tail call i64 @avio_seek(ptr noundef %11, i64 noundef %23, i32 noundef 0) #3
  %.lobit = ashr i64 %24, 63
  %. = trunc nsw i64 %.lobit to i32
  ret i32 %.
}